; Function Attrs: mustprogress nofree norecurse nosync nounwind willreturn memory(argmem: read) uwtable
define dso_local { ptr, i64 } @_ZN4Luau19EqSatSimplification6TTable15mutableOperandsEv(ptr noundef nonnull readonly align 8 captures(none) dereferenceable(48) %0) local_unnamed_addr #8 align 2 {
  %2 = getelementptr inbounds nuw i8, ptr %0, i64 24
  %3 = load ptr, ptr %2, align 8, !tbaa !8
  %4 = getelementptr inbounds nuw i8, ptr %0, i64 32
  %5 = load ptr, ptr %4, align 8, !tbaa !12
  %6 = ptrtoint ptr %5 to i64
  %7 = ptrtoint ptr %3 to i64
  %8 = sub i64 %6, %7
  %9 = ashr exact i64 %8, 2
  %.fca.0.insert = insertvalue { ptr, i64 } poison, ptr %3, 0
  %.fca.1.insert = insertvalue { ptr, i64 } %.fca.0.insert, i64 %9, 1
  ret { ptr, i64 } %.fca.1.insert
}